target datalayout = "e-m:e-p270:32:32-p271:32:32-p272:64:64-i64:64-i128:128-f80:128-n8:16:32:64-S128"
target triple = "x86_64-pc-linux-gnu"

%struct.anon = type { i32, [0 x i8] }
%struct.varattrib_1b = type { i8, [0 x i8] }
%struct.varattrib_1b_e = type { i8, i8, [0 x i8] }

; Function Attrs: inlinehint nounwind uwtable
define internal i64 @PointerGetDatum(ptr noundef %0) #0 {
  %2 = alloca ptr, align 8
  store ptr %0, ptr %2, align 8
  %3 = load ptr, ptr %2, align 8
  %4 = ptrtoint ptr %3 to i64
  ret i64 %4
}

; Function Attrs: inlinehint nounwind uwtable
define internal ptr @DatumGetPointer(i64 noundef %0) #0 {
  %2 = alloca i64, align 8
  store i64 %0, ptr %2, align 8
  %3 = load i64, ptr %2, align 8
  %4 = inttoptr i64 %3 to ptr
  ret ptr %4
}

; Function Attrs: nounwind uwtable
define internal i32 @bpcharfastcmp_c(i64 noundef %0, i64 noundef %1, ptr noundef %2) #1 {
  %4 = alloca i64, align 8
  %5 = alloca i64, align 8
  %6 = alloca ptr, align 8
  %7 = alloca ptr, align 8
  %8 = alloca ptr, align 8
  %9 = alloca ptr, align 8
  %10 = alloca ptr, align 8
  %11 = alloca i32, align 4
  %12 = alloca i32, align 4
  %13 = alloca i32, align 4
  store i64 %0, ptr %4, align 8
  store i64 %1, ptr %5, align 8
  store ptr %2, ptr %6, align 8
  call void @llvm.lifetime.start.p0(i64 8, ptr %7) #13
  %14 = load i64, ptr %4, align 8
  %15 = call ptr @DatumGetPointer(i64 noundef %14)
  %16 = call ptr @pg_detoast_datum_packed(ptr noundef %15)
  store ptr %16, ptr %7, align 8
  call void @llvm.lifetime.start.p0(i64 8, ptr %8) #13
  %17 = load i64, ptr %5, align 8
  %18 = call ptr @DatumGetPointer(i64 noundef %17)
  %19 = call ptr @pg_detoast_datum_packed(ptr noundef %18)
  store ptr %19, ptr %8, align 8
  call void @llvm.lifetime.start.p0(i64 8, ptr %9) #13
  call void @llvm.lifetime.start.p0(i64 8, ptr %10) #13
  call void @llvm.lifetime.start.p0(i64 4, ptr %11) #13
  call void @llvm.lifetime.start.p0(i64 4, ptr %12) #13
  call void @llvm.lifetime.start.p0(i64 4, ptr %13) #13
  %20 = load ptr, ptr %7, align 8
  %21 = getelementptr inbounds nuw %struct.varattrib_1b, ptr %20, i32 0, i32 0
  %22 = load i8, ptr %21, align 1
  %23 = zext i8 %22 to i32
  %24 = and i32 %23, 1
  %25 = icmp eq i32 %24, 1
  br i1 %25, label %26, label %30

26:                                               ; preds = %3
  %27 = load ptr, ptr %7, align 8
  %28 = getelementptr inbounds nuw %struct.varattrib_1b, ptr %27, i32 0, i32 1
  %29 = getelementptr inbounds [0 x i8], ptr %28, i64 0, i64 0
  br label %34

30:                                               ; preds = %3
  %31 = load ptr, ptr %7, align 8
  %32 = getelementptr inbounds nuw %struct.anon, ptr %31, i32 0, i32 1
  %33 = getelementptr inbounds [0 x i8], ptr %32, i64 0, i64 0
  br label %34

34:                                               ; preds = %30, %26
  %35 = phi ptr [ %29, %26 ], [ %33, %30 ]
  store ptr %35, ptr %9, align 8
  %36 = load ptr, ptr %8, align 8
  %37 = getelementptr inbounds nuw %struct.varattrib_1b, ptr %36, i32 0, i32 0
  %38 = load i8, ptr %37, align 1
  %39 = zext i8 %38 to i32
  %40 = and i32 %39, 1
  %41 = icmp eq i32 %40, 1
  br i1 %41, label %42, label %46

42:                                               ; preds = %34
  %43 = load ptr, ptr %8, align 8
  %44 = getelementptr inbounds nuw %struct.varattrib_1b, ptr %43, i32 0, i32 1
  %45 = getelementptr inbounds [0 x i8], ptr %44, i64 0, i64 0
  br label %50

46:                                               ; preds = %34
  %47 = load ptr, ptr %8, align 8
  %48 = getelementptr inbounds nuw %struct.anon, ptr %47, i32 0, i32 1
  %49 = getelementptr inbounds [0 x i8], ptr %48, i64 0, i64 0
  br label %50

50:                                               ; preds = %46, %42
  %51 = phi ptr [ %45, %42 ], [ %49, %46 ]
  store ptr %51, ptr %10, align 8
  %52 = load ptr, ptr %9, align 8
  %53 = load ptr, ptr %7, align 8
  %54 = getelementptr inbounds nuw %struct.varattrib_1b, ptr %53, i32 0, i32 0
  %55 = load i8, ptr %54, align 1
  %56 = zext i8 %55 to i32
  %57 = icmp eq i32 %56, 1
  br i1 %57, label %58, label %86

58:                                               ; preds = %50
  %59 = load ptr, ptr %7, align 8
  %60 = getelementptr inbounds nuw %struct.varattrib_1b_e, ptr %59, i32 0, i32 1
  %61 = load i8, ptr %60, align 1
  %62 = zext i8 %61 to i32
  %63 = icmp eq i32 %62, 1
  br i1 %63, label %64, label %65

64:                                               ; preds = %58
  br label %82

65:                                               ; preds = %58
  %66 = load ptr, ptr %7, align 8
  %67 = getelementptr inbounds nuw %struct.varattrib_1b_e, ptr %66, i32 0, i32 1
  %68 = load i8, ptr %67, align 1
  %69 = zext i8 %68 to i32
  %70 = and i32 %69, -2
  %71 = icmp eq i32 %70, 2
  br i1 %71, label %72, label %73

72:                                               ; preds = %65
  br label %80

73:                                               ; preds = %65
  %74 = load ptr, ptr %7, align 8
  %75 = getelementptr inbounds nuw %struct.varattrib_1b_e, ptr %74, i32 0, i32 1
  %76 = load i8, ptr %75, align 1
  %77 = zext i8 %76 to i32
  %78 = icmp eq i32 %77, 18
  %79 = select i1 %78, i64 16, i64 0
  br label %80

80:                                               ; preds = %73, %72
  %81 = phi i64 [ 8, %72 ], [ %79, %73 ]
  br label %82

82:                                               ; preds = %80, %64
  %83 = phi i64 [ 8, %64 ], [ %81, %80 ]
  %84 = add i64 2, %83
  %85 = sub i64 %84, 2
  br label %112

86:                                               ; preds = %50
  %87 = load ptr, ptr %7, align 8
  %88 = getelementptr inbounds nuw %struct.varattrib_1b, ptr %87, i32 0, i32 0
  %89 = load i8, ptr %88, align 1
  %90 = zext i8 %89 to i32
  %91 = and i32 %90, 1
  %92 = icmp eq i32 %91, 1
  br i1 %92, label %93, label %102

93:                                               ; preds = %86
  %94 = load ptr, ptr %7, align 8
  %95 = getelementptr inbounds nuw %struct.varattrib_1b, ptr %94, i32 0, i32 0
  %96 = load i8, ptr %95, align 1
  %97 = zext i8 %96 to i32
  %98 = ashr i32 %97, 1
  %99 = and i32 %98, 127
  %100 = sext i32 %99 to i64
  %101 = sub i64 %100, 1
  br label %110

102:                                              ; preds = %86
  %103 = load ptr, ptr %7, align 8
  %104 = getelementptr inbounds nuw %struct.anon, ptr %103, i32 0, i32 0
  %105 = load i32, ptr %104, align 4
  %106 = lshr i32 %105, 2
  %107 = and i32 %106, 1073741823
  %108 = sub i32 %107, 4
  %109 = zext i32 %108 to i64
  br label %110

110:                                              ; preds = %102, %93
  %111 = phi i64 [ %101, %93 ], [ %109, %102 ]
  br label %112

112:                                              ; preds = %110, %82
  %113 = phi i64 [ %85, %82 ], [ %111, %110 ]
  %114 = trunc i64 %113 to i32
  %115 = call i32 @bpchartruelen(ptr noundef %52, i32 noundef %114)
  store i32 %115, ptr %11, align 4
  %116 = load ptr, ptr %10, align 8
  %117 = load ptr, ptr %8, align 8
  %118 = getelementptr inbounds nuw %struct.varattrib_1b, ptr %117, i32 0, i32 0
  %119 = load i8, ptr %118, align 1
  %120 = zext i8 %119 to i32
  %121 = icmp eq i32 %120, 1
  br i1 %121, label %122, label %150

122:                                              ; preds = %112
  %123 = load ptr, ptr %8, align 8
  %124 = getelementptr inbounds nuw %struct.varattrib_1b_e, ptr %123, i32 0, i32 1
  %125 = load i8, ptr %124, align 1
  %126 = zext i8 %125 to i32
  %127 = icmp eq i32 %126, 1
  br i1 %127, label %128, label %129

128:                                              ; preds = %122
  br label %146

129:                                              ; preds = %122
  %130 = load ptr, ptr %8, align 8
  %131 = getelementptr inbounds nuw %struct.varattrib_1b_e, ptr %130, i32 0, i32 1
  %132 = load i8, ptr %131, align 1
  %133 = zext i8 %132 to i32
  %134 = and i32 %133, -2
  %135 = icmp eq i32 %134, 2
  br i1 %135, label %136, label %137

136:                                              ; preds = %129
  br label %144

137:                                              ; preds = %129
  %138 = load ptr, ptr %8, align 8
  %139 = getelementptr inbounds nuw %struct.varattrib_1b_e, ptr %138, i32 0, i32 1
  %140 = load i8, ptr %139, align 1
  %141 = zext i8 %140 to i32
  %142 = icmp eq i32 %141, 18
  %143 = select i1 %142, i64 16, i64 0
  br label %144

144:                                              ; preds = %137, %136
  %145 = phi i64 [ 8, %136 ], [ %143, %137 ]
  br label %146

146:                                              ; preds = %144, %128
  %147 = phi i64 [ 8, %128 ], [ %145, %144 ]
  %148 = add i64 2, %147
  %149 = sub i64 %148, 2
  br label %176

150:                                              ; preds = %112
  %151 = load ptr, ptr %8, align 8
  %152 = getelementptr inbounds nuw %struct.varattrib_1b, ptr %151, i32 0, i32 0
  %153 = load i8, ptr %152, align 1
  %154 = zext i8 %153 to i32
  %155 = and i32 %154, 1
  %156 = icmp eq i32 %155, 1
  br i1 %156, label %157, label %166

157:                                              ; preds = %150
  %158 = load ptr, ptr %8, align 8
  %159 = getelementptr inbounds nuw %struct.varattrib_1b, ptr %158, i32 0, i32 0
  %160 = load i8, ptr %159, align 1
  %161 = zext i8 %160 to i32
  %162 = ashr i32 %161, 1
  %163 = and i32 %162, 127
  %164 = sext i32 %163 to i64
  %165 = sub i64 %164, 1
  br label %174

166:                                              ; preds = %150
  %167 = load ptr, ptr %8, align 8
  %168 = getelementptr inbounds nuw %struct.anon, ptr %167, i32 0, i32 0
  %169 = load i32, ptr %168, align 4
  %170 = lshr i32 %169, 2
  %171 = and i32 %170, 1073741823
  %172 = sub i32 %171, 4
  %173 = zext i32 %172 to i64
  br label %174

174:                                              ; preds = %166, %157
  %175 = phi i64 [ %165, %157 ], [ %173, %166 ]
  br label %176

176:                                              ; preds = %174, %146
  %177 = phi i64 [ %149, %146 ], [ %175, %174 ]
  %178 = trunc i64 %177 to i32
  %179 = call i32 @bpchartruelen(ptr noundef %116, i32 noundef %178)
  store i32 %179, ptr %12, align 4
  %180 = load ptr, ptr %9, align 8
  %181 = load ptr, ptr %10, align 8
  %182 = load i32, ptr %11, align 4
  %183 = load i32, ptr %12, align 4
  %184 = icmp slt i32 %182, %183
  br i1 %184, label %185, label %187

185:                                              ; preds = %176
  %186 = load i32, ptr %11, align 4
  br label %189

187:                                              ; preds = %176
  %188 = load i32, ptr %12, align 4
  br label %189

189:                                              ; preds = %187, %185
  %190 = phi i32 [ %186, %185 ], [ %188, %187 ]
  %191 = sext i32 %190 to i64
  %192 = call i32 @memcmp(ptr noundef %180, ptr noundef %181, i64 noundef %191) #12
  store i32 %192, ptr %13, align 4
  %193 = load i32, ptr %13, align 4
  %194 = icmp eq i32 %193, 0
  br i1 %194, label %195, label %204

195:                                              ; preds = %189
  %196 = load i32, ptr %11, align 4
  %197 = load i32, ptr %12, align 4
  %198 = icmp ne i32 %196, %197
  br i1 %198, label %199, label %204

199:                                              ; preds = %195
  %200 = load i32, ptr %11, align 4
  %201 = load i32, ptr %12, align 4
  %202 = icmp slt i32 %200, %201
  %203 = select i1 %202, i32 -1, i32 1
  store i32 %203, ptr %13, align 4
  br label %204

204:                                              ; preds = %199, %195, %189
  %205 = load ptr, ptr %7, align 8
  %206 = call i64 @PointerGetDatum(ptr noundef %205)
  %207 = load i64, ptr %4, align 8
  %208 = icmp ne i64 %206, %207
  br i1 %208, label %209, label %211

209:                                              ; preds = %204
  %210 = load ptr, ptr %7, align 8
  call void @pfree(ptr noundef %210)
  br label %211

211:                                              ; preds = %209, %204
  %212 = load ptr, ptr %8, align 8
  %213 = call i64 @PointerGetDatum(ptr noundef %212)
  %214 = load i64, ptr %5, align 8
  %215 = icmp ne i64 %213, %214
  br i1 %215, label %216, label %218

216:                                              ; preds = %211
  %217 = load ptr, ptr %8, align 8
  call void @pfree(ptr noundef %217)
  br label %218

218:                                              ; preds = %216, %211
  %219 = load i32, ptr %13, align 4
  call void @llvm.lifetime.end.p0(i64 4, ptr %13) #13
  call void @llvm.lifetime.end.p0(i64 4, ptr %12) #13
  call void @llvm.lifetime.end.p0(i64 4, ptr %11) #13
  call void @llvm.lifetime.end.p0(i64 8, ptr %10) #13
  call void @llvm.lifetime.end.p0(i64 8, ptr %9) #13
  call void @llvm.lifetime.end.p0(i64 8, ptr %8) #13
  call void @llvm.lifetime.end.p0(i64 8, ptr %7) #13
  ret i32 %219
}