; Function Attrs: nounwind uwtable
define internal i32 @bpcharfastcmp_c(i64 noundef %0, i64 noundef %1, ptr readnone captures(none) %2) #0 {
  %4 = inttoptr i64 %0 to ptr
  %5 = tail call ptr @pg_detoast_datum_packed(ptr noundef %4) #19
  %6 = inttoptr i64 %1 to ptr
  %7 = tail call ptr @pg_detoast_datum_packed(ptr noundef %6) #19
  %8 = load i8, ptr %5, align 1
  %9 = zext i8 %8 to i32
  %10 = and i32 %9, 1
  %.not = icmp eq i32 %10, 0
  %11 = getelementptr inbounds nuw i8, ptr %5, i64 1
  %12 = getelementptr inbounds nuw i8, ptr %5, i64 4
  %13 = select i1 %.not, ptr %12, ptr %11
  %14 = load i8, ptr %7, align 1
  %15 = and i8 %14, 1
  %.not46 = icmp eq i8 %15, 0
  %16 = getelementptr inbounds nuw i8, ptr %7, i64 1
  %17 = getelementptr inbounds nuw i8, ptr %7, i64 4
  %18 = select i1 %.not46, ptr %17, ptr %16
  %19 = icmp eq i8 %8, 1
  br i1 %19, label %20, label %28

20:                                               ; preds = %3
  %21 = load i8, ptr %11, align 1
  %22 = icmp eq i8 %21, 1
  %23 = and i8 %21, -2
  %24 = icmp eq i8 %23, 2
  %or.cond = or i1 %22, %24
  %25 = icmp eq i8 %21, 18
  %26 = select i1 %25, i32 16, i32 0
  %27 = select i1 %or.cond, i32 8, i32 %26
  br label %36

28:                                               ; preds = %3
  br i1 %.not, label %32, label %29

29:                                               ; preds = %28
  %30 = lshr i32 %9, 1
  %31 = add nsw i32 %30, -1
  br label %36

32:                                               ; preds = %28
  %33 = load i32, ptr %5, align 4
  %34 = lshr i32 %33, 2
  %35 = add nsw i32 %34, -4
  br label %36

36:                                               ; preds = %29, %32, %20
  %37 = phi i32 [ %27, %20 ], [ %31, %29 ], [ %35, %32 ]
  %38 = tail call i32 @bpchartruelen(ptr noundef nonnull %13, i32 noundef %37) #19
  %39 = load i8, ptr %7, align 1
  %40 = zext i8 %39 to i32
  %41 = icmp eq i8 %39, 1
  br i1 %41, label %42, label %50

42:                                               ; preds = %36
  %43 = load i8, ptr %16, align 1
  %44 = icmp eq i8 %43, 1
  %45 = and i8 %43, -2
  %46 = icmp eq i8 %45, 2
  %or.cond53 = or i1 %44, %46
  %47 = icmp eq i8 %43, 18
  %48 = select i1 %47, i32 16, i32 0
  %49 = select i1 %or.cond53, i32 8, i32 %48
  br label %59

50:                                               ; preds = %36
  %51 = and i32 %40, 1
  %.not47 = icmp eq i32 %51, 0
  br i1 %.not47, label %55, label %52

52:                                               ; preds = %50
  %53 = lshr i32 %40, 1
  %54 = add nsw i32 %53, -1
  br label %59

55:                                               ; preds = %50
  %56 = load i32, ptr %7, align 4
  %57 = lshr i32 %56, 2
  %58 = add nsw i32 %57, -4
  br label %59

59:                                               ; preds = %52, %55, %42
  %60 = phi i32 [ %49, %42 ], [ %54, %52 ], [ %58, %55 ]
  %61 = tail call i32 @bpchartruelen(ptr noundef nonnull %18, i32 noundef %60) #19
  %62 = tail call i32 @llvm.smin.i32(i32 %38, i32 %61)
  %63 = sext i32 %62 to i64
  %64 = tail call i32 @memcmp(ptr noundef nonnull %13, ptr noundef nonnull %18, i64 noundef %63) #18
  %65 = ptrtoint ptr %5 to i64
  %.not49 = icmp eq i64 %0, %65
  br i1 %.not49, label %67, label %66

66:                                               ; preds = %59
  tail call void @pfree(ptr noundef nonnull %5) #19
  br label %67

67:                                               ; preds = %66, %59
  %68 = ptrtoint ptr %7 to i64
  %.not50 = icmp eq i64 %1, %68
  br i1 %.not50, label %70, label %69

69:                                               ; preds = %67
  tail call void @pfree(ptr noundef nonnull %7) #19
  br label %70

70:                                               ; preds = %69, %67
  %71 = icmp eq i32 %64, 0
  %spec.select = tail call i32 @llvm.scmp.i32.i32(i32 %38, i32 %61)
  %.0 = select i1 %71, i32 %spec.select, i32 %64
  ret i32 %.0
}